; Function Attrs: mustprogress uwtable
define noundef nonnull ptr @_ZNK18llama_model_loader19require_tensor_metaERKNSt7__cxx1112basic_stringIcSt11char_traitsIcESaIcEEE(ptr noundef nonnull align 8 dereferenceable(320) %0, ptr noundef nonnull readonly align 8 captures(none) dereferenceable(32) %1) local_unnamed_addr #1 align 2 personality ptr @__gxx_personality_v0 {
  %3 = alloca %"class.std::__cxx11::basic_string", align 8
  %4 = load ptr, ptr %1, align 8, !tbaa !3
  %5 = tail call noundef ptr @_ZNK18llama_model_loader10get_weightEPKc(ptr noundef nonnull align 8 dereferenceable(320) %0, ptr noundef %4)
  %.not.i = icmp eq ptr %5, null
  br i1 %.not.i, label %_ZNK18llama_model_loader15get_tensor_metaEPKc.exit.thread, label %_ZNK18llama_model_loader15get_tensor_metaEPKc.exit

_ZNK18llama_model_loader15get_tensor_metaEPKc.exit: ; preds = %2
  %6 = getelementptr inbounds nuw i8, ptr %5, i64 16
  %7 = load ptr, ptr %6, align 8, !tbaa !157
  %.not = icmp eq ptr %7, null
  br i1 %.not, label %_ZNK18llama_model_loader15get_tensor_metaEPKc.exit.thread, label %25

_ZNK18llama_model_loader15get_tensor_metaEPKc.exit.thread: ; preds = %2, %_ZNK18llama_model_loader15get_tensor_metaEPKc.exit
  %8 = tail call ptr @__cxa_allocate_exception(i64 16) #32
  call void @llvm.lifetime.start.p0(i64 32, ptr nonnull %3) #32
  %9 = load ptr, ptr %1, align 8, !tbaa !3
  invoke void (ptr, ptr, ...) @_Z6formatB5cxx11PKcz(ptr dead_on_unwind nonnull writable sret(%"class.std::__cxx11::basic_string") align 8 %3, ptr noundef nonnull @.str.28, ptr noundef nonnull @__func__._ZNK18llama_model_loader19require_tensor_metaERKNSt7__cxx1112basic_stringIcSt11char_traitsIcESaIcEEE, ptr noundef %9)
          to label %10 unwind label %_ZNSt7__cxx1112basic_stringIcSt11char_traitsIcESaIcEED2Ev.exit.thread

10:                                               ; preds = %_ZNK18llama_model_loader15get_tensor_metaEPKc.exit.thread
  invoke void @_ZNSt13runtime_errorC1ERKNSt7__cxx1112basic_stringIcSt11char_traitsIcESaIcEEE(ptr noundef nonnull align 8 dereferenceable(16) %8, ptr noundef nonnull align 8 dereferenceable(32) %3)
          to label %11 unwind label %13

11:                                               ; preds = %10
  invoke void @__cxa_throw(ptr nonnull %8, ptr nonnull @_ZTISt13runtime_error, ptr nonnull @_ZNSt13runtime_errorD1Ev) #34
          to label %26 unwind label %13

_ZNSt7__cxx1112basic_stringIcSt11char_traitsIcESaIcEED2Ev.exit.thread: ; preds = %_ZNK18llama_model_loader15get_tensor_metaEPKc.exit.thread
  %12 = landingpad { ptr, i32 }
          cleanup
  call void @llvm.lifetime.end.p0(i64 32, ptr nonnull %3) #32
  br label %23

13:                                               ; preds = %11, %10
  %.0 = phi i1 [ false, %11 ], [ true, %10 ]
  %14 = landingpad { ptr, i32 }
          cleanup
  %15 = load ptr, ptr %3, align 8, !tbaa !3
  %16 = getelementptr inbounds nuw i8, ptr %3, i64 16
  %17 = icmp eq ptr %15, %16
  br i1 %17, label %_ZNKSt7__cxx1112basic_stringIcSt11char_traitsIcESaIcEE11_M_is_localEv.exit.thread.i.i, label %_ZNSt7__cxx1112basic_stringIcSt11char_traitsIcESaIcEED2Ev.exit

_ZNKSt7__cxx1112basic_stringIcSt11char_traitsIcESaIcEE11_M_is_localEv.exit.thread.i.i: ; preds = %13
  %18 = getelementptr inbounds nuw i8, ptr %3, i64 8
  %19 = load i64, ptr %18, align 8, !tbaa !11
  %20 = icmp ult i64 %19, 16
  call void @llvm.assume(i1 %20)
  call void @llvm.lifetime.end.p0(i64 32, ptr nonnull %3) #32
  br i1 %.0, label %23, label %24

_ZNSt7__cxx1112basic_stringIcSt11char_traitsIcESaIcEED2Ev.exit: ; preds = %13
  %21 = load i64, ptr %16, align 8, !tbaa !12
  %22 = add i64 %21, 1
  call void @_ZdlPvm(ptr noundef %15, i64 noundef %22) #33
  call void @llvm.lifetime.end.p0(i64 32, ptr nonnull %3) #32
  br i1 %.0, label %23, label %24

23:                                               ; preds = %_ZNKSt7__cxx1112basic_stringIcSt11char_traitsIcESaIcEE11_M_is_localEv.exit.thread.i.i, %_ZNSt7__cxx1112basic_stringIcSt11char_traitsIcESaIcEED2Ev.exit.thread, %_ZNSt7__cxx1112basic_stringIcSt11char_traitsIcESaIcEED2Ev.exit
  %.pn16 = phi { ptr, i32 } [ %12, %_ZNSt7__cxx1112basic_stringIcSt11char_traitsIcESaIcEED2Ev.exit.thread ], [ %14, %_ZNSt7__cxx1112basic_stringIcSt11char_traitsIcESaIcEED2Ev.exit ], [ %14, %_ZNKSt7__cxx1112basic_stringIcSt11char_traitsIcESaIcEE11_M_is_localEv.exit.thread.i.i ]
  call void @__cxa_free_exception(ptr %8) #32
  br label %24

24:                                               ; preds = %_ZNKSt7__cxx1112basic_stringIcSt11char_traitsIcESaIcEE11_M_is_localEv.exit.thread.i.i, %23, %_ZNSt7__cxx1112basic_stringIcSt11char_traitsIcESaIcEED2Ev.exit
  %.pn15 = phi { ptr, i32 } [ %.pn16, %23 ], [ %14, %_ZNSt7__cxx1112basic_stringIcSt11char_traitsIcESaIcEED2Ev.exit ], [ %14, %_ZNKSt7__cxx1112basic_stringIcSt11char_traitsIcESaIcEE11_M_is_localEv.exit.thread.i.i ]
  resume { ptr, i32 } %.pn15

25:                                               ; preds = %_ZNK18llama_model_loader15get_tensor_metaEPKc.exit
  ret ptr %7

26:                                               ; preds = %11
  unreachable
}